(lp1
(S'c5f0170f87a2fbb17bf65dc858c745e2'
p2
I540501
tp3
a(S'4b8eb68442432c242e9242be040bacf9'
p4
I465578
tp5
a(S'2e14d32266ee6b4678595f8f50c369ac'
p6
I430839
tp7
a(S'03c6699ea836decbc5c8fc2dbae7bd3b'
p8
I339060
tp9
a(S'8fb3cef29f2c266af4c9ecef3b780e97'
p10
I307645
tp11
a(S'099cd99056bf92e5f0e384465890a804'
p12
I231934
tp13
a(S'7e0db58c13d033dafe5f5e1e70ff7eb4'
p14
I201076
tp15
a(S'2ec1450a1389d4e3fc2a9a76c9378bb3'
p16
I201065
tp17
a(S'c026b84e8f23a7741d9b670e3d8973f0'
p18
I193196
tp19
a(S'3e395c6b799d3d8cb7cd501b4503b536'
p20
I182971
tp21
a(S'40bbb0da5570702dd6ff3af5e9e3aea6'
p22
I172434
tp23
a(S'8da51d03b8b8717431e8b902856fb45e'
p24
I171211
tp25
a(S'd773376e46311393cd89994bf9a93043'
p26
I157071
tp27
a(S'ac43c6ce2f9df4adfbb05edd97cecbcc'
p28
I152243
tp29
a(S'be0c7a23c2aa9afb45163995b9ec938c'
p30
I144531
tp31
a(S'6bb4c3bbdb6f5a96d643320c6b6005f5'
p32
I128165
tp33
a(S'5e2ef5473cbbdb335f6d51dc57845437'
p34
I123630
tp35
a(S'023406156015ef87f99521f3b343f71f'
p36
I109460
tp37
a(S'4f3f68292e50f39cd8142733512c07d6'
p38
I108105
tp39
a(S'97de6333157f35467dff271d7afb0a23'
p40
I103988
tp41
a(S'9e58afbf3fea116b0050bf56bfb4442e'
p42
I97416
tp43
a(S'3964ee41d4e2ade1957a9135afe1b8dc'
p44
I94538
tp45
a(S'1731019fbaa825714d5f8e61ad1bb7ff'
p46
I89872
tp47
a(S'b7522cc91cf57ada15de2298bfd6a3ee'
p48
I88408
tp49
a(S'6f462b173b2d6d20a2c9fb1ec0fd2dda'
p50
I74709
tp51
a(S'ca6db6d4f02b7b946c57fc389e67dd7e'
p52
I68751
tp53
a(S'6a493121e53d83f9e119b02942d7c8fe'
p54
I64473
tp55
a(S'025943df23acf5d3863b35fa6e0d79ec'
p56
I55958
tp57
a(S'445a257964b9689f115a69e8cc5dcb75'
p58
I49527
tp59
a(S'0c80008b0a28d356026f4b1097041689'
p60
I44727
tp61
a(S'e6e2fff03cc32ee9777de2c2ed5bac30'
p62
I40713
tp63
a(S'28e32be6ba67e0c6fdfdff80ce07dfd4'
p64
I39197
tp65
a(S'82fda1f850a9fe22e41b5c8dadaff4ac'
p66
I35915
tp67
a(S'f6e0f05fde7637afb8f8bc6bda74ca24'
p68
I35319
tp69
a(S'33fd0a2cfcfd24e114707bba71ca1de9'
p70
I29979
tp71
a(S'53dd7de874e0999634c28cdd94d21257'
p72
I26853
tp73
a(S'34bc4bc49a725f2686a5cf9c89985798'
p74
I26585
tp75
a(S'b6a175a48743caed6d035444c069ab64'
p76
I26484
tp77
a(S'9f69ffd8852196e02cfa19b5cd9bc432'
p78
I25901
tp79
a(S'f5a5373f30de984e9142a206f94a2f46'
p80
I25712
tp81
a(S'8f29cbc2a555034643d66f9e83dd7a7a'
p82
I25708
tp83
a(S'25739ad1c56a511fcac86018ac4e49bb'
p84
I24768
tp85
a(S'e087f8842fe66efa5ccee42ff791e0ca'
p86
I23902
tp87
a(S'ffd47cf9cb66d226575336f0fa42ae25'
p88
I18543
tp89
a(S'1339f978614ff19cd48f07e5420556d4'
p90
I15127
tp91
a(S'61dfd882204789d7d0f70fee2b901cef'
p92
I13158
tp93
a(S'c5eac1d455675dfbc99f6c70f7b3971f'
p94
I11863
tp95
a(S'4ee3f9c90101073c99d5440b41f07daa'
p96
I6413
tp97
a(S'bf21d16799b240d6e445fa30472bd50b'
p98
I3999
tp99
a(S'2b7fedeea967becd9408b896de8ff903'
p100
I3011
tp101
a.