(dp1
S'e087f8842fe66efa5ccee42ff791e0ca'
p2
I42
sS'3e395c6b799d3d8cb7cd501b4503b536'
p3
I9
sS'4f3f68292e50f39cd8142733512c07d6'
p4
I18
sS'8da51d03b8b8717431e8b902856fb45e'
p5
I11
sS'40bbb0da5570702dd6ff3af5e9e3aea6'
p6
I10
sS'8f29cbc2a555034643d66f9e83dd7a7a'
p7
I40
sS'b7522cc91cf57ada15de2298bfd6a3ee'
p8
I23
sS'b6a175a48743caed6d035444c069ab64'
p9
I37
sS'6a493121e53d83f9e119b02942d7c8fe'
p10
I26
sS'03c6699ea836decbc5c8fc2dbae7bd3b'
p11
I3
sS'4b8eb68442432c242e9242be040bacf9'
p12
I1
sS'023406156015ef87f99521f3b343f71f'
p13
I17
sS'099cd99056bf92e5f0e384465890a804'
p14
I5
sS'3964ee41d4e2ade1957a9135afe1b8dc'
p15
I21
sS'8fb3cef29f2c266af4c9ecef3b780e97'
p16
I4
sS'25739ad1c56a511fcac86018ac4e49bb'
p17
I41
sS'c5f0170f87a2fbb17bf65dc858c745e2'
p18
I0
sS'ffd47cf9cb66d226575336f0fa42ae25'
p19
I43
sS'28e32be6ba67e0c6fdfdff80ce07dfd4'
p20
I31
sS'6bb4c3bbdb6f5a96d643320c6b6005f5'
p21
I15
sS'2ec1450a1389d4e3fc2a9a76c9378bb3'
p22
I7
sS'445a257964b9689f115a69e8cc5dcb75'
p23
I28
sS'bf21d16799b240d6e445fa30472bd50b'
p24
I48
sS'1339f978614ff19cd48f07e5420556d4'
p25
I44
sS'9f69ffd8852196e02cfa19b5cd9bc432'
p26
I38
sS'2e14d32266ee6b4678595f8f50c369ac'
p27
I2
sS'2b7fedeea967becd9408b896de8ff903'
p28
I49
sS'9e58afbf3fea116b0050bf56bfb4442e'
p29
I20
sS'f6e0f05fde7637afb8f8bc6bda74ca24'
p30
I33
sS'82fda1f850a9fe22e41b5c8dadaff4ac'
p31
I32
sS'c026b84e8f23a7741d9b670e3d8973f0'
p32
I8
sS'0c80008b0a28d356026f4b1097041689'
p33
I29
sS'33fd0a2cfcfd24e114707bba71ca1de9'
p34
I34
sS'025943df23acf5d3863b35fa6e0d79ec'
p35
I27
sS'53dd7de874e0999634c28cdd94d21257'
p36
I35
sS'7e0db58c13d033dafe5f5e1e70ff7eb4'
p37
I6
sS'e6e2fff03cc32ee9777de2c2ed5bac30'
p38
I30
sS'34bc4bc49a725f2686a5cf9c89985798'
p39
I36
sS'c5eac1d455675dfbc99f6c70f7b3971f'
p40
I46
sS'1731019fbaa825714d5f8e61ad1bb7ff'
p41
I22
sS'be0c7a23c2aa9afb45163995b9ec938c'
p42
I14
sS'ca6db6d4f02b7b946c57fc389e67dd7e'
p43
I25
sS'97de6333157f35467dff271d7afb0a23'
p44
I19
sS'61dfd882204789d7d0f70fee2b901cef'
p45
I45
sS'f5a5373f30de984e9142a206f94a2f46'
p46
I39
sS'ac43c6ce2f9df4adfbb05edd97cecbcc'
p47
I13
sS'd773376e46311393cd89994bf9a93043'
p48
I12
sS'4ee3f9c90101073c99d5440b41f07daa'
p49
I47
sS'6f462b173b2d6d20a2c9fb1ec0fd2dda'
p50
I24
sS'5e2ef5473cbbdb335f6d51dc57845437'
p51
I16
s.