(dp1
S'3e395c6b799d3d8cb7cd501b4503b536'
p2
I0
sS'03c6699ea836decbc5c8fc2dbae7bd3b'
p3
I0
s(S'3964ee41d4e2ade1957a9135afe1b8dc'
p4
I94538
tp5
I21
sS'8fb3cef29f2c266af4c9ecef3b780e97'
p6
I0
s(S'ac43c6ce2f9df4adfbb05edd97cecbcc'
p7
I152243
tp8
I13
sS'be0c7a23c2aa9afb45163995b9ec938c'
p9
I0
s(S'd773376e46311393cd89994bf9a93043'
p10
I157071
tp11
I12
s(S'bf21d16799b240d6e445fa30472bd50b'
p12
I3999
tp13
I48
sS'4b8eb68442432c242e9242be040bacf9'
p14
I0
s(g3
I339060
tp15
I3
sS'9e58afbf3fea116b0050bf56bfb4442e'
p16
I0
s(S'c5f0170f87a2fbb17bf65dc858c745e2'
p17
I540501
tp18
I0
sS'53dd7de874e0999634c28cdd94d21257'
p19
I0
sS'e6e2fff03cc32ee9777de2c2ed5bac30'
p20
I0
s(S'28e32be6ba67e0c6fdfdff80ce07dfd4'
p21
I39197
tp22
I31
s(S'9f69ffd8852196e02cfa19b5cd9bc432'
p23
I25901
tp24
I38
sS'6bb4c3bbdb6f5a96d643320c6b6005f5'
p25
I0
s(g9
I144531
tp26
I14
sS'97de6333157f35467dff271d7afb0a23'
p27
I0
sg7
I0
s(S'0c80008b0a28d356026f4b1097041689'
p28
I44727
tp29
I29
sg10
I0
sS'e087f8842fe66efa5ccee42ff791e0ca'
p30
I0
s(S'099cd99056bf92e5f0e384465890a804'
p31
I231934
tp32
I5
sS'6a493121e53d83f9e119b02942d7c8fe'
p33
I0
s(S'ca6db6d4f02b7b946c57fc389e67dd7e'
p34
I68751
tp35
I25
s(S'ffd47cf9cb66d226575336f0fa42ae25'
p36
I18543
tp37
I43
sg36
I0
sg23
I0
s(S'c026b84e8f23a7741d9b670e3d8973f0'
p38
I193196
tp39
I8
sS'6f462b173b2d6d20a2c9fb1ec0fd2dda'
p40
I0
sS'f6e0f05fde7637afb8f8bc6bda74ca24'
p41
I0
s(g33
I64473
tp42
I26
sS'2e14d32266ee6b4678595f8f50c369ac'
p43
I0
s(S'025943df23acf5d3863b35fa6e0d79ec'
p44
I55958
tp45
I27
s(S'25739ad1c56a511fcac86018ac4e49bb'
p46
I24768
tp47
I41
sS'34bc4bc49a725f2686a5cf9c89985798'
p48
I0
s(S'1339f978614ff19cd48f07e5420556d4'
p49
I15127
tp50
I44
s(S'b7522cc91cf57ada15de2298bfd6a3ee'
p51
I88408
tp52
I23
sg34
I0
sS'4ee3f9c90101073c99d5440b41f07daa'
p53
I0
s(S'c5eac1d455675dfbc99f6c70f7b3971f'
p54
I11863
tp55
I46
s(g20
I40713
tp56
I30
sS'5e2ef5473cbbdb335f6d51dc57845437'
p57
I0
s(g19
I26853
tp58
I35
sS'40bbb0da5570702dd6ff3af5e9e3aea6'
p59
I0
sg51
I0
sS'b6a175a48743caed6d035444c069ab64'
p60
I0
s(g14
I465578
tp61
I1
s(g57
I123630
tp62
I16
s(g60
I26484
tp63
I37
sg4
I0
sg46
I0
s(S'445a257964b9689f115a69e8cc5dcb75'
p64
I49527
tp65
I28
sg21
I0
sS'2ec1450a1389d4e3fc2a9a76c9378bb3'
p66
I0
sg64
I0
sg12
I0
sS'7e0db58c13d033dafe5f5e1e70ff7eb4'
p67
I0
s(g25
I128165
tp68
I15
sg38
I0
sg28
I0
sS'33fd0a2cfcfd24e114707bba71ca1de9'
p69
I0
s(S'8f29cbc2a555034643d66f9e83dd7a7a'
p70
I25708
tp71
I40
s(g69
I29979
tp72
I34
s(S'f5a5373f30de984e9142a206f94a2f46'
p73
I25712
tp74
I39
s(S'023406156015ef87f99521f3b343f71f'
p75
I109460
tp76
I17
s(g66
I201065
tp77
I7
sS'4f3f68292e50f39cd8142733512c07d6'
p78
I0
s(g53
I6413
tp79
I47
sS'2b7fedeea967becd9408b896de8ff903'
p80
I0
sS'8da51d03b8b8717431e8b902856fb45e'
p81
I0
sg70
I0
s(g43
I430839
tp82
I2
s(S'82fda1f850a9fe22e41b5c8dadaff4ac'
p83
I35915
tp84
I32
s(g30
I23902
tp85
I42
sg31
I0
sg83
I0
sg17
I0
s(g80
I3011
tp86
I49
sg75
I0
s(g41
I35319
tp87
I33
s(g16
I97416
tp88
I20
sg49
I0
s(g81
I171211
tp89
I11
s(g67
I201076
tp90
I6
s(S'1731019fbaa825714d5f8e61ad1bb7ff'
p91
I89872
tp92
I22
s(g40
I74709
tp93
I24
sg44
I0
s(g2
I182971
tp94
I9
s(g59
I172434
tp95
I10
sg91
I0
s(g48
I26585
tp96
I36
sg54
I0
sS'61dfd882204789d7d0f70fee2b901cef'
p97
I0
sg73
I0
s(g97
I13158
tp98
I45
s(g78
I108105
tp99
I18
s(g27
I103988
tp100
I19
s(g6
I307645
tp101
I4
s.